target datalayout = "e-m:e-p270:32:32-p271:32:32-p272:64:64-i64:64-i128:128-f80:128-n8:16:32:64-S128"
target triple = "x86_64-pc-linux-gnu"

@local_job_str = internal global ptr null, align 8
@_next_job_id.hl = internal global ptr null, align 8
@_next_job_id.save_ptr = internal global ptr null, align 8
@_next_job_id.next_job_id = internal global ptr null, align 8
@_next_job_id.task_id_spec = internal global ptr null, align 8
@.str.145 = private unnamed_addr constant [2 x i8] c"_\00", align 1
@.str.146 = private unnamed_addr constant [2 x i8] c"^\00", align 1
@.str.147 = private unnamed_addr constant [19 x i8] c"Invalid job id: %s\00", align 1

; Function Attrs: nounwind uwtable
define internal ptr @_next_job_id() #0 {
  %1 = alloca ptr, align 8
  %2 = alloca ptr, align 8
  %3 = alloca ptr, align 8
  %4 = alloca ptr, align 8
  %5 = alloca ptr, align 8
  %6 = alloca ptr, align 8
  %7 = alloca i32, align 4
  %8 = alloca i32, align 4
  call void @llvm.lifetime.start.p0(i64 8, ptr %2) #8
  store ptr null, ptr %2, align 8
  call void @llvm.lifetime.start.p0(i64 8, ptr %3) #8
  call void @llvm.lifetime.start.p0(i64 8, ptr %4) #8
  call void @llvm.lifetime.start.p0(i64 8, ptr %5) #8
  call void @llvm.lifetime.start.p0(i64 8, ptr %6) #8
  call void @llvm.lifetime.start.p0(i64 4, ptr %7) #8
  call void @slurm_xfree(ptr noundef @_next_job_id.next_job_id)
  %9 = load ptr, ptr @_next_job_id.hl, align 8
  %10 = icmp ne ptr %9, null
  br i1 %10, label %11, label %28

11:                                               ; preds = %0
  %12 = load ptr, ptr @_next_job_id.hl, align 8
  %13 = call ptr @hostlist_shift(ptr noundef %12)
  store ptr %13, ptr %5, align 8
  %14 = load ptr, ptr %5, align 8
  %15 = icmp ne ptr %14, null
  br i1 %15, label %16, label %26

16:                                               ; preds = %11
  %17 = load ptr, ptr %5, align 8
  %18 = call ptr @xstrdup(ptr noundef %17)
  store ptr %18, ptr @_next_job_id.next_job_id, align 8
  %19 = load ptr, ptr %5, align 8
  call void @free(ptr noundef %19) #8
  %20 = load ptr, ptr @_next_job_id.task_id_spec, align 8
  %21 = icmp ne ptr %20, null
  br i1 %21, label %22, label %24

22:                                               ; preds = %16
  call void @_xstrcat(ptr noundef @_next_job_id.next_job_id, ptr noundef @.str.145)
  %23 = load ptr, ptr @_next_job_id.task_id_spec, align 8
  call void @_xstrcat(ptr noundef @_next_job_id.next_job_id, ptr noundef %23)
  br label %24

24:                                               ; preds = %22, %16
  %25 = load ptr, ptr @_next_job_id.next_job_id, align 8
  store ptr %25, ptr %1, align 8
  store i32 1, ptr %8, align 4
  br label %156

26:                                               ; preds = %11
  %27 = load ptr, ptr @_next_job_id.hl, align 8
  call void @hostlist_destroy(ptr noundef %27)
  store ptr null, ptr @_next_job_id.hl, align 8
  br label %28

28:                                               ; preds = %26, %0
  call void @slurm_xfree(ptr noundef @_next_job_id.task_id_spec)
  %29 = load ptr, ptr @local_job_str, align 8
  %30 = icmp ne ptr %29, null
  br i1 %30, label %31, label %37

31:                                               ; preds = %28
  %32 = load ptr, ptr @_next_job_id.save_ptr, align 8
  %33 = icmp ne ptr %32, null
  br i1 %33, label %37, label %34

34:                                               ; preds = %31
  %35 = load ptr, ptr @local_job_str, align 8
  %36 = call ptr @strtok_r(ptr noundef %35, ptr noundef @.str.146, ptr noundef @_next_job_id.save_ptr) #8
  store ptr %36, ptr %2, align 8
  br label %43

37:                                               ; preds = %31, %28
  %38 = load ptr, ptr @_next_job_id.save_ptr, align 8
  %39 = icmp ne ptr %38, null
  br i1 %39, label %40, label %42

40:                                               ; preds = %37
  %41 = call ptr @strtok_r(ptr noundef null, ptr noundef @.str.146, ptr noundef @_next_job_id.save_ptr) #8
  store ptr %41, ptr %2, align 8
  br label %42

42:                                               ; preds = %40, %37
  br label %43

43:                                               ; preds = %42, %34
  %44 = load ptr, ptr %2, align 8
  %45 = icmp ne ptr %44, null
  br i1 %45, label %47, label %46

46:                                               ; preds = %43
  br label %155

47:                                               ; preds = %43
  %48 = load ptr, ptr %2, align 8
  %49 = call ptr @strchr(ptr noundef %48, i32 noundef 95) #10
  store ptr %49, ptr %4, align 8
  %50 = load ptr, ptr %4, align 8
  %51 = icmp ne ptr %50, null
  br i1 %51, label %52, label %92

52:                                               ; preds = %47
  %53 = load ptr, ptr %4, align 8
  %54 = getelementptr inbounds i8, ptr %53, i64 1
  %55 = load i8, ptr %54, align 1
  %56 = sext i8 %55 to i32
  %57 = icmp eq i32 %56, 91
  br i1 %57, label %58, label %87

58:                                               ; preds = %52
  %59 = load ptr, ptr %4, align 8
  %60 = getelementptr inbounds i8, ptr %59, i64 2
  %61 = call ptr @xstrdup(ptr noundef %60)
  store ptr %61, ptr @_next_job_id.task_id_spec, align 8
  store i32 0, ptr %7, align 4
  br label %62

62:                                               ; preds = %83, %58
  %63 = load ptr, ptr @_next_job_id.task_id_spec, align 8
  %64 = load i32, ptr %7, align 4
  %65 = sext i32 %64 to i64
  %66 = getelementptr inbounds i8, ptr %63, i64 %65
  %67 = load i8, ptr %66, align 1
  %68 = icmp ne i8 %67, 0
  br i1 %68, label %69, label %86

69:                                               ; preds = %62
  %70 = load ptr, ptr @_next_job_id.task_id_spec, align 8
  %71 = load i32, ptr %7, align 4
  %72 = sext i32 %71 to i64
  %73 = getelementptr inbounds i8, ptr %70, i64 %72
  %74 = load i8, ptr %73, align 1
  %75 = sext i8 %74 to i32
  %76 = icmp eq i32 %75, 93
  br i1 %76, label %77, label %82

77:                                               ; preds = %69
  %78 = load ptr, ptr @_next_job_id.task_id_spec, align 8
  %79 = load i32, ptr %7, align 4
  %80 = sext i32 %79 to i64
  %81 = getelementptr inbounds i8, ptr %78, i64 %80
  store i8 0, ptr %81, align 1
  br label %86

82:                                               ; preds = %69
  br label %83

83:                                               ; preds = %82
  %84 = load i32, ptr %7, align 4
  %85 = add nsw i32 %84, 1
  store i32 %85, ptr %7, align 4
  br label %62, !llvm.loop !17

86:                                               ; preds = %77, %62
  br label %91

87:                                               ; preds = %52
  %88 = load ptr, ptr %4, align 8
  %89 = getelementptr inbounds i8, ptr %88, i64 1
  %90 = call ptr @xstrdup(ptr noundef %89)
  store ptr %90, ptr @_next_job_id.task_id_spec, align 8
  br label %91

91:                                               ; preds = %87, %86
  br label %92

92:                                               ; preds = %91, %47
  %93 = load ptr, ptr %2, align 8
  %94 = call ptr @strchr(ptr noundef %93, i32 noundef 91) #10
  store ptr %94, ptr %3, align 8
  %95 = load ptr, ptr %3, align 8
  %96 = icmp ne ptr %95, null
  br i1 %96, label %97, label %134

97:                                               ; preds = %92
  %98 = load ptr, ptr %4, align 8
  %99 = icmp ne ptr %98, null
  br i1 %99, label %100, label %104

100:                                              ; preds = %97
  %101 = load ptr, ptr %3, align 8
  %102 = load ptr, ptr %4, align 8
  %103 = icmp ult ptr %101, %102
  br i1 %103, label %104, label %134

104:                                              ; preds = %100, %97
  %105 = load ptr, ptr %2, align 8
  %106 = call ptr @xstrdup(ptr noundef %105)
  store ptr %106, ptr %5, align 8
  %107 = load ptr, ptr %5, align 8
  %108 = call ptr @strchr(ptr noundef %107, i32 noundef 95) #10
  store ptr %108, ptr %6, align 8
  %109 = icmp ne ptr %108, null
  br i1 %109, label %110, label %113

110:                                              ; preds = %104
  %111 = load ptr, ptr %6, align 8
  %112 = getelementptr inbounds i8, ptr %111, i64 0
  store i8 0, ptr %112, align 1
  br label %113

113:                                              ; preds = %110, %104
  %114 = load ptr, ptr %5, align 8
  %115 = call ptr @hostlist_create(ptr noundef %114)
  store ptr %115, ptr @_next_job_id.hl, align 8
  %116 = load ptr, ptr @_next_job_id.hl, align 8
  %117 = icmp ne ptr %116, null
  br i1 %117, label %121, label %118

118:                                              ; preds = %113
  %119 = load ptr, ptr %2, align 8
  %120 = call i32 (ptr, ...) @error(ptr noundef @.str.147, ptr noundef %119)
  call void @slurm_xfree(ptr noundef %5)
  br label %155

121:                                              ; preds = %113
  call void @slurm_xfree(ptr noundef %5)
  %122 = load ptr, ptr @_next_job_id.hl, align 8
  %123 = call ptr @hostlist_shift(ptr noundef %122)
  store ptr %123, ptr %5, align 8
  %124 = load ptr, ptr %5, align 8
  %125 = icmp ne ptr %124, null
  br i1 %125, label %130, label %126

126:                                              ; preds = %121
  %127 = load ptr, ptr %2, align 8
  %128 = call i32 (ptr, ...) @error(ptr noundef @.str.147, ptr noundef %127)
  %129 = load ptr, ptr @_next_job_id.hl, align 8
  call void @hostlist_destroy(ptr noundef %129)
  br label %155

130:                                              ; preds = %121
  %131 = load ptr, ptr %5, align 8
  %132 = call ptr @xstrdup(ptr noundef %131)
  store ptr %132, ptr @_next_job_id.next_job_id, align 8
  %133 = load ptr, ptr %5, align 8
  call void @free(ptr noundef %133) #8
  br label %148

134:                                              ; preds = %100, %92
  %135 = load ptr, ptr %4, align 8
  %136 = icmp ne ptr %135, null
  br i1 %136, label %137, label %144

137:                                              ; preds = %134
  %138 = load ptr, ptr %4, align 8
  %139 = getelementptr inbounds i8, ptr %138, i64 0
  store i8 0, ptr %139, align 1
  %140 = load ptr, ptr %2, align 8
  %141 = call ptr @xstrdup(ptr noundef %140)
  store ptr %141, ptr @_next_job_id.next_job_id, align 8
  %142 = load ptr, ptr %4, align 8
  %143 = getelementptr inbounds i8, ptr %142, i64 0
  store i8 95, ptr %143, align 1
  br label %147

144:                                              ; preds = %134
  %145 = load ptr, ptr %2, align 8
  %146 = call ptr @xstrdup(ptr noundef %145)
  store ptr %146, ptr @_next_job_id.next_job_id, align 8
  br label %147

147:                                              ; preds = %144, %137
  br label %148

148:                                              ; preds = %147, %130
  %149 = load ptr, ptr @_next_job_id.task_id_spec, align 8
  %150 = icmp ne ptr %149, null
  br i1 %150, label %151, label %153

151:                                              ; preds = %148
  call void @_xstrcat(ptr noundef @_next_job_id.next_job_id, ptr noundef @.str.145)
  %152 = load ptr, ptr @_next_job_id.task_id_spec, align 8
  call void @_xstrcat(ptr noundef @_next_job_id.next_job_id, ptr noundef %152)
  br label %153

153:                                              ; preds = %151, %148
  %154 = load ptr, ptr @_next_job_id.next_job_id, align 8
  store ptr %154, ptr %1, align 8
  store i32 1, ptr %8, align 4
  br label %156

155:                                              ; preds = %126, %118, %46
  call void @slurm_xfree(ptr noundef @local_job_str)
  store ptr null, ptr @_next_job_id.save_ptr, align 8
  store ptr null, ptr %1, align 8
  store i32 1, ptr %8, align 4
  br label %156

156:                                              ; preds = %155, %153, %24
  call void @llvm.lifetime.end.p0(i64 4, ptr %7) #8
  call void @llvm.lifetime.end.p0(i64 8, ptr %6) #8
  call void @llvm.lifetime.end.p0(i64 8, ptr %5) #8
  call void @llvm.lifetime.end.p0(i64 8, ptr %4) #8
  call void @llvm.lifetime.end.p0(i64 8, ptr %3) #8
  call void @llvm.lifetime.end.p0(i64 8, ptr %2) #8
  %157 = load ptr, ptr %1, align 8
  ret ptr %157
}