; Function Attrs: nounwind uwtable
define internal fastcc ptr @_next_job_id() unnamed_addr #0 {
  %1 = alloca ptr, align 8
  call void @llvm.lifetime.start.p0(i64 8, ptr nonnull %1) #13
  tail call void @slurm_xfree(ptr noundef nonnull @_next_job_id.next_job_id) #13
  %2 = load ptr, ptr @_next_job_id.hl, align 8
  %.not = icmp eq ptr %2, null
  br i1 %.not, label %14, label %3

3:                                                ; preds = %0
  %4 = tail call ptr @hostlist_shift(ptr noundef nonnull %2) #13
  store ptr %4, ptr %1, align 8
  %.not35 = icmp eq ptr %4, null
  br i1 %.not35, label %12, label %5

5:                                                ; preds = %3
  %6 = tail call ptr @xstrdup(ptr noundef nonnull %4) #13
  store ptr %6, ptr @_next_job_id.next_job_id, align 8
  tail call void @free(ptr noundef nonnull %4) #13
  %7 = load ptr, ptr @_next_job_id.task_id_spec, align 8
  %.not44 = icmp eq ptr %7, null
  br i1 %.not44, label %10, label %8

8:                                                ; preds = %5
  tail call void @_xstrcat(ptr noundef nonnull @_next_job_id.next_job_id, ptr noundef nonnull @.str.145) #13
  %9 = load ptr, ptr @_next_job_id.task_id_spec, align 8
  tail call void @_xstrcat(ptr noundef nonnull @_next_job_id.next_job_id, ptr noundef %9) #13
  br label %10

10:                                               ; preds = %8, %5
  %11 = load ptr, ptr @_next_job_id.next_job_id, align 8
  br label %68

12:                                               ; preds = %3
  %13 = load ptr, ptr @_next_job_id.hl, align 8
  tail call void @hostlist_destroy(ptr noundef %13) #13
  store ptr null, ptr @_next_job_id.hl, align 8
  br label %14

14:                                               ; preds = %12, %0
  tail call void @slurm_xfree(ptr noundef nonnull @_next_job_id.task_id_spec) #13
  %15 = load ptr, ptr @local_job_str, align 8
  %16 = icmp eq ptr %15, null
  %17 = load ptr, ptr @_next_job_id.save_ptr, align 8
  %18 = icmp ne ptr %17, null
  %or.cond = select i1 %16, i1 true, i1 %18
  %or.cond.not = xor i1 %or.cond, true
  %brmerge = select i1 %or.cond.not, i1 true, i1 %18
  br i1 %brmerge, label %19, label %.thread

19:                                               ; preds = %14
  %.mux = select i1 %or.cond, ptr null, ptr %15
  %20 = tail call ptr @strtok_r(ptr noundef %.mux, ptr noundef nonnull @.str.146, ptr noundef nonnull @_next_job_id.save_ptr) #13
  %.not36 = icmp eq ptr %20, null
  br i1 %.not36, label %.thread, label %21

21:                                               ; preds = %19
  %22 = tail call ptr @strchr(ptr noundef nonnull dereferenceable(1) %20, i32 noundef 95) #16
  %.not37 = icmp eq ptr %22, null
  br i1 %.not37, label %.loopexit, label %23

23:                                               ; preds = %21
  %24 = getelementptr inbounds nuw i8, ptr %22, i64 1
  %25 = load i8, ptr %24, align 1
  %26 = icmp eq i8 %25, 91
  br i1 %26, label %27, label %36

27:                                               ; preds = %23
  %28 = getelementptr inbounds nuw i8, ptr %22, i64 2
  %29 = tail call ptr @xstrdup(ptr noundef nonnull %28) #13
  store ptr %29, ptr @_next_job_id.task_id_spec, align 8
  br label %30

30:                                               ; preds = %35, %27
  %indvars.iv = phi i64 [ %indvars.iv.next, %35 ], [ 0, %27 ]
  %31 = getelementptr inbounds nuw i8, ptr %29, i64 %indvars.iv
  %32 = load i8, ptr %31, align 1
  switch i8 %32, label %35 [
    i8 0, label %.loopexit
    i8 93, label %33
  ]

33:                                               ; preds = %30
  %34 = getelementptr inbounds nuw i8, ptr %29, i64 %indvars.iv
  store i8 0, ptr %34, align 1
  br label %.loopexit

35:                                               ; preds = %30
  %indvars.iv.next = add nuw nsw i64 %indvars.iv, 1
  br label %30, !llvm.loop !15

36:                                               ; preds = %23
  %37 = tail call ptr @xstrdup(ptr noundef nonnull %24) #13
  store ptr %37, ptr @_next_job_id.task_id_spec, align 8
  br label %.loopexit

.loopexit:                                        ; preds = %30, %36, %33, %21
  %38 = tail call ptr @strchr(ptr noundef nonnull dereferenceable(1) %20, i32 noundef 91) #16
  %.not39 = icmp ne ptr %38, null
  %39 = icmp ult ptr %38, %22
  %or.cond45 = or i1 %.not37, %39
  %or.cond46 = and i1 %.not39, %or.cond45
  br i1 %or.cond46, label %40, label %57

40:                                               ; preds = %.loopexit
  %41 = tail call ptr @xstrdup(ptr noundef nonnull %20) #13
  store ptr %41, ptr %1, align 8
  %42 = tail call ptr @strchr(ptr noundef nonnull dereferenceable(1) %41, i32 noundef 95) #16
  %.not40 = icmp eq ptr %42, null
  br i1 %.not40, label %44, label %43

43:                                               ; preds = %40
  store i8 0, ptr %42, align 1
  br label %44

44:                                               ; preds = %43, %40
  %45 = tail call ptr @hostlist_create(ptr noundef nonnull %41) #13
  store ptr %45, ptr @_next_job_id.hl, align 8
  %.not41 = icmp eq ptr %45, null
  br i1 %.not41, label %46, label %48

46:                                               ; preds = %44
  %47 = tail call i32 (ptr, ...) @error(ptr noundef nonnull @.str.147, ptr noundef nonnull %20) #13
  call void @slurm_xfree(ptr noundef nonnull %1) #13
  br label %.thread

48:                                               ; preds = %44
  call void @slurm_xfree(ptr noundef nonnull %1) #13
  %49 = load ptr, ptr @_next_job_id.hl, align 8
  %50 = call ptr @hostlist_shift(ptr noundef %49) #13
  store ptr %50, ptr %1, align 8
  %.not42 = icmp eq ptr %50, null
  br i1 %.not42, label %51, label %54

51:                                               ; preds = %48
  %52 = call i32 (ptr, ...) @error(ptr noundef nonnull @.str.147, ptr noundef nonnull %20) #13
  %53 = load ptr, ptr @_next_job_id.hl, align 8
  call void @hostlist_destroy(ptr noundef %53) #13
  br label %.thread

54:                                               ; preds = %48
  %55 = call ptr @xstrdup(ptr noundef nonnull %50) #13
  store ptr %55, ptr @_next_job_id.next_job_id, align 8
  %56 = load ptr, ptr %1, align 8
  call void @free(ptr noundef %56) #13
  br label %62

57:                                               ; preds = %.loopexit
  br i1 %.not37, label %60, label %58

58:                                               ; preds = %57
  store i8 0, ptr %22, align 1
  %59 = tail call ptr @xstrdup(ptr noundef nonnull %20) #13
  store ptr %59, ptr @_next_job_id.next_job_id, align 8
  store i8 95, ptr %22, align 1
  br label %62

60:                                               ; preds = %57
  %61 = tail call ptr @xstrdup(ptr noundef nonnull %20) #13
  store ptr %61, ptr @_next_job_id.next_job_id, align 8
  br label %62

62:                                               ; preds = %58, %60, %54
  %63 = load ptr, ptr @_next_job_id.task_id_spec, align 8
  %.not43 = icmp eq ptr %63, null
  br i1 %.not43, label %66, label %64

64:                                               ; preds = %62
  call void @_xstrcat(ptr noundef nonnull @_next_job_id.next_job_id, ptr noundef nonnull @.str.145) #13
  %65 = load ptr, ptr @_next_job_id.task_id_spec, align 8
  call void @_xstrcat(ptr noundef nonnull @_next_job_id.next_job_id, ptr noundef %65) #13
  br label %66

66:                                               ; preds = %64, %62
  %67 = load ptr, ptr @_next_job_id.next_job_id, align 8
  br label %68

.thread:                                          ; preds = %14, %19, %51, %46
  call void @slurm_xfree(ptr noundef nonnull @local_job_str) #13
  store ptr null, ptr @_next_job_id.save_ptr, align 8
  br label %68

68:                                               ; preds = %.thread, %66, %10
  %.025 = phi ptr [ %11, %10 ], [ %67, %66 ], [ null, %.thread ]
  call void @llvm.lifetime.end.p0(i64 8, ptr nonnull %1) #13
  ret ptr %.025
}